; Function Attrs: mustprogress nounwind uwtable
define internal fastcc noundef i32 @_ZL17computeRemLatencyRN4llvm13SchedBoundaryE(ptr noundef nonnull readonly align 8 captures(none) dereferenceable(712) %0) unnamed_addr #0 {
  %2 = getelementptr inbounds nuw i8, ptr %0, i64 180
  %3 = load i32, ptr %2, align 4
  %4 = getelementptr inbounds nuw i8, ptr %0, i64 24
  %5 = getelementptr inbounds nuw i8, ptr %0, i64 64
  %6 = load ptr, ptr %5, align 8
  %7 = getelementptr inbounds nuw i8, ptr %0, i64 72
  %8 = load ptr, ptr %7, align 8
  %.not18.i = icmp eq ptr %8, %6
  br i1 %.not18.i, label %_ZN4llvm13SchedBoundary14findMaxLatencyENS_8ArrayRefIPNS_5SUnitEEE.exit, label %.lr.ph.i

.lr.ph.i:                                         ; preds = %1, %_ZNK4llvm13SchedBoundary21getUnscheduledLatencyEPNS_5SUnitE.exit.i
  %.01320.i = phi i32 [ %spec.select.i, %_ZNK4llvm13SchedBoundary21getUnscheduledLatencyEPNS_5SUnitE.exit.i ], [ 0, %1 ]
  %.01519.i = phi ptr [ %22, %_ZNK4llvm13SchedBoundary21getUnscheduledLatencyEPNS_5SUnitE.exit.i ], [ %6, %1 ]
  %9 = load ptr, ptr %.01519.i, align 8
  %10 = load i32, ptr %4, align 8
  %11 = icmp eq i32 %10, 1
  %12 = getelementptr inbounds nuw i8, ptr %9, i64 254
  %13 = load i8, ptr %12, align 2
  br i1 %11, label %14, label %17

14:                                               ; preds = %.lr.ph.i
  %15 = and i8 %13, 2
  %.not.i.i.i = icmp eq i8 %15, 0
  br i1 %.not.i.i.i, label %16, label %_ZNK4llvm13SchedBoundary21getUnscheduledLatencyEPNS_5SUnitE.exit.i

16:                                               ; preds = %14
  tail call void @_ZN4llvm5SUnit13ComputeHeightEv(ptr noundef nonnull align 8 dereferenceable(255) %9) #28
  br label %_ZNK4llvm13SchedBoundary21getUnscheduledLatencyEPNS_5SUnitE.exit.i

17:                                               ; preds = %.lr.ph.i
  %18 = trunc i8 %13 to i1
  br i1 %18, label %_ZNK4llvm13SchedBoundary21getUnscheduledLatencyEPNS_5SUnitE.exit.i, label %19

19:                                               ; preds = %17
  tail call void @_ZN4llvm5SUnit12ComputeDepthEv(ptr noundef nonnull align 8 dereferenceable(255) %9) #28
  br label %_ZNK4llvm13SchedBoundary21getUnscheduledLatencyEPNS_5SUnitE.exit.i

_ZNK4llvm13SchedBoundary21getUnscheduledLatencyEPNS_5SUnitE.exit.i: ; preds = %19, %17, %16, %14
  %.sink.i.i = phi i64 [ 244, %14 ], [ 244, %16 ], [ 240, %17 ], [ 240, %19 ]
  %20 = getelementptr inbounds nuw i8, ptr %9, i64 %.sink.i.i
  %21 = load i32, ptr %20, align 4
  %spec.select.i = tail call i32 @llvm.umax.i32(i32 %21, i32 %.01320.i)
  %22 = getelementptr inbounds nuw i8, ptr %.01519.i, i64 8
  %.not.i = icmp eq ptr %22, %8
  br i1 %.not.i, label %_ZN4llvm13SchedBoundary14findMaxLatencyENS_8ArrayRefIPNS_5SUnitEEE.exit, label %.lr.ph.i

_ZN4llvm13SchedBoundary14findMaxLatencyENS_8ArrayRefIPNS_5SUnitEEE.exit: ; preds = %_ZNK4llvm13SchedBoundary21getUnscheduledLatencyEPNS_5SUnitE.exit.i, %1
  %.013.lcssa.i = phi i32 [ 0, %1 ], [ %spec.select.i, %_ZNK4llvm13SchedBoundary21getUnscheduledLatencyEPNS_5SUnitE.exit.i ]
  %23 = getelementptr inbounds nuw i8, ptr %0, i64 128
  %24 = load ptr, ptr %23, align 8
  %25 = getelementptr inbounds nuw i8, ptr %0, i64 136
  %26 = load ptr, ptr %25, align 8
  %.not18.i9 = icmp eq ptr %26, %24
  br i1 %.not18.i9, label %_ZN4llvm13SchedBoundary14findMaxLatencyENS_8ArrayRefIPNS_5SUnitEEE.exit19, label %.lr.ph.i10

.lr.ph.i10:                                       ; preds = %_ZN4llvm13SchedBoundary14findMaxLatencyENS_8ArrayRefIPNS_5SUnitEEE.exit, %_ZNK4llvm13SchedBoundary21getUnscheduledLatencyEPNS_5SUnitE.exit.i13
  %.01320.i11 = phi i32 [ %spec.select.i15, %_ZNK4llvm13SchedBoundary21getUnscheduledLatencyEPNS_5SUnitE.exit.i13 ], [ 0, %_ZN4llvm13SchedBoundary14findMaxLatencyENS_8ArrayRefIPNS_5SUnitEEE.exit ]
  %.01519.i12 = phi ptr [ %40, %_ZNK4llvm13SchedBoundary21getUnscheduledLatencyEPNS_5SUnitE.exit.i13 ], [ %24, %_ZN4llvm13SchedBoundary14findMaxLatencyENS_8ArrayRefIPNS_5SUnitEEE.exit ]
  %27 = load ptr, ptr %.01519.i12, align 8
  %28 = load i32, ptr %4, align 8
  %29 = icmp eq i32 %28, 1
  %30 = getelementptr inbounds nuw i8, ptr %27, i64 254
  %31 = load i8, ptr %30, align 2
  br i1 %29, label %32, label %35

32:                                               ; preds = %.lr.ph.i10
  %33 = and i8 %31, 2
  %.not.i.i.i18 = icmp eq i8 %33, 0
  br i1 %.not.i.i.i18, label %34, label %_ZNK4llvm13SchedBoundary21getUnscheduledLatencyEPNS_5SUnitE.exit.i13

34:                                               ; preds = %32
  tail call void @_ZN4llvm5SUnit13ComputeHeightEv(ptr noundef nonnull align 8 dereferenceable(255) %27) #28
  br label %_ZNK4llvm13SchedBoundary21getUnscheduledLatencyEPNS_5SUnitE.exit.i13

35:                                               ; preds = %.lr.ph.i10
  %36 = trunc i8 %31 to i1
  br i1 %36, label %_ZNK4llvm13SchedBoundary21getUnscheduledLatencyEPNS_5SUnitE.exit.i13, label %37

37:                                               ; preds = %35
  tail call void @_ZN4llvm5SUnit12ComputeDepthEv(ptr noundef nonnull align 8 dereferenceable(255) %27) #28
  br label %_ZNK4llvm13SchedBoundary21getUnscheduledLatencyEPNS_5SUnitE.exit.i13

_ZNK4llvm13SchedBoundary21getUnscheduledLatencyEPNS_5SUnitE.exit.i13: ; preds = %37, %35, %34, %32
  %.sink.i.i14 = phi i64 [ 244, %32 ], [ 244, %34 ], [ 240, %35 ], [ 240, %37 ]
  %38 = getelementptr inbounds nuw i8, ptr %27, i64 %.sink.i.i14
  %39 = load i32, ptr %38, align 4
  %spec.select.i15 = tail call i32 @llvm.umax.i32(i32 %39, i32 %.01320.i11)
  %40 = getelementptr inbounds nuw i8, ptr %.01519.i12, i64 8
  %.not.i16 = icmp eq ptr %40, %26
  br i1 %.not.i16, label %_ZN4llvm13SchedBoundary14findMaxLatencyENS_8ArrayRefIPNS_5SUnitEEE.exit19, label %.lr.ph.i10

_ZN4llvm13SchedBoundary14findMaxLatencyENS_8ArrayRefIPNS_5SUnitEEE.exit19: ; preds = %_ZNK4llvm13SchedBoundary21getUnscheduledLatencyEPNS_5SUnitE.exit.i13, %_ZN4llvm13SchedBoundary14findMaxLatencyENS_8ArrayRefIPNS_5SUnitEEE.exit
  %.013.lcssa.i17 = phi i32 [ 0, %_ZN4llvm13SchedBoundary14findMaxLatencyENS_8ArrayRefIPNS_5SUnitEEE.exit ], [ %spec.select.i15, %_ZNK4llvm13SchedBoundary21getUnscheduledLatencyEPNS_5SUnitE.exit.i13 ]
  %.sroa.speculated23 = tail call i32 @llvm.umax.i32(i32 %3, i32 %.013.lcssa.i)
  %.sroa.speculated = tail call i32 @llvm.umax.i32(i32 %.sroa.speculated23, i32 %.013.lcssa.i17)
  ret i32 %.sroa.speculated
}